; Function Attrs: mustprogress nofree norecurse nosync nounwind willreturn memory(argmem: readwrite) uwtable
define noundef ptr @uprv_decNumberSameQuantum_77(ptr noundef returned writeonly initializes((0, 10)) %0, ptr noundef readonly captures(none) %1, ptr noundef readonly captures(none) %2) local_unnamed_addr #11 {
  %4 = getelementptr inbounds nuw i8, ptr %1, i64 8
  %5 = load i8, ptr %4, align 4, !tbaa !3
  %6 = zext i8 %5 to i32
  %7 = getelementptr inbounds nuw i8, ptr %2, i64 8
  %8 = load i8, ptr %7, align 4, !tbaa !3
  %9 = zext i8 %8 to i32
  %10 = or i32 %9, %6
  %11 = and i32 %10, 112
  %.not = icmp eq i32 %11, 0
  br i1 %.not, label %19, label %12

12:                                               ; preds = %3
  %13 = and i32 %6, 48
  %.not11 = icmp eq i32 %13, 0
  %14 = and i32 %9, 48
  %.not12 = icmp eq i32 %14, 0
  %or.cond = or i1 %.not11, %.not12
  br i1 %or.cond, label %15, label %25

15:                                               ; preds = %12
  %16 = and i8 %5, 64
  %.not13 = icmp eq i8 %16, 0
  br i1 %.not13, label %25, label %17

17:                                               ; preds = %15
  %18 = lshr i8 %8, 6
  %.lobit = and i8 %18, 1
  br label %25

19:                                               ; preds = %3
  %20 = getelementptr inbounds nuw i8, ptr %1, i64 4
  %21 = load i32, ptr %20, align 4, !tbaa !8
  %22 = getelementptr inbounds nuw i8, ptr %2, i64 4
  %23 = load i32, ptr %22, align 4, !tbaa !8
  %24 = icmp eq i32 %21, %23
  %spec.select15 = zext i1 %24 to i8
  br label %25

25:                                               ; preds = %19, %17, %12, %15
  %.0 = phi i8 [ 0, %15 ], [ 1, %12 ], [ %.lobit, %17 ], [ %spec.select15, %19 ]
  %26 = getelementptr inbounds nuw i8, ptr %0, i64 8
  store i8 0, ptr %26, align 4, !tbaa !3
  %27 = getelementptr inbounds nuw i8, ptr %0, i64 4
  store i32 0, ptr %27, align 4, !tbaa !8
  store i32 1, ptr %0, align 4, !tbaa !9
  %28 = getelementptr inbounds nuw i8, ptr %0, i64 9
  store i8 %.0, ptr %28, align 1, !tbaa !10
  ret ptr %0
}